; Function Attrs: mustprogress nofree norecurse nosync nounwind willreturn memory(argmem: read) uwtable
define hidden { i64, i64 } @av1_whole_frame_rect(ptr noundef readonly captures(none) %0, i32 noundef %1) local_unnamed_addr #0 {
  %.not = icmp eq i32 %1, 0
  br i1 %.not, label %.thread, label %3

3:                                                ; preds = %2
  %4 = getelementptr inbounds nuw i8, ptr %0, i64 25280
  %5 = load i32, ptr %4, align 16
  %6 = icmp ne i32 %5, 0
  %7 = zext i1 %6 to i32
  %8 = getelementptr inbounds nuw i8, ptr %0, i64 25284
  %9 = load i32, ptr %8, align 4
  %10 = icmp ne i32 %9, 0
  %11 = zext i1 %10 to i32
  br label %.thread

.thread:                                          ; preds = %2, %3
  %12 = phi i32 [ %7, %3 ], [ 0, %2 ]
  %13 = phi i32 [ %11, %3 ], [ 0, %2 ]
  %14 = getelementptr inbounds nuw i8, ptr %0, i64 460
  %15 = load i32, ptr %14, align 4
  %16 = shl nuw nsw i32 1, %13
  %17 = lshr i32 %16, 1
  %18 = add nsw i32 %17, %15
  %19 = ashr i32 %18, %13
  %20 = getelementptr inbounds nuw i8, ptr %0, i64 472
  %21 = load i32, ptr %20, align 8
  %22 = shl nuw nsw i32 1, %12
  %23 = lshr i32 %22, 1
  %24 = add nsw i32 %21, %23
  %25 = ashr i32 %24, %12
  %.sroa.5.8.insert.ext = zext i32 %19 to i64
  %.sroa.5.8.insert.shift = shl nuw i64 %.sroa.5.8.insert.ext, 32
  %.sroa.3.8.insert.ext = zext i32 %25 to i64
  %.sroa.3.8.insert.insert = or disjoint i64 %.sroa.5.8.insert.shift, %.sroa.3.8.insert.ext
  %.fca.1.insert = insertvalue { i64, i64 } { i64 0, i64 poison }, i64 %.sroa.3.8.insert.insert, 1
  ret { i64, i64 } %.fca.1.insert
}